; Function Attrs: nounwind uwtable
define void @Bmc_LoadStop(ptr noundef captures(none) %0) local_unnamed_addr #0 {
  %2 = getelementptr inbounds nuw i8, ptr %0, i64 24
  %3 = load ptr, ptr %2, align 8, !tbaa !34
  %4 = getelementptr inbounds nuw i8, ptr %3, i64 8
  %5 = load ptr, ptr %4, align 8, !tbaa !37
  %.not.i = icmp eq ptr %5, null
  br i1 %.not.i, label %7, label %6

6:                                                ; preds = %1
  tail call void @free(ptr noundef nonnull %5) #14
  br label %7

7:                                                ; preds = %1, %6
  tail call void @free(ptr noundef nonnull %3) #14
  %8 = getelementptr inbounds nuw i8, ptr %0, i64 16
  %9 = load ptr, ptr %8, align 8, !tbaa !39
  tail call void @sat_solver_delete(ptr noundef %9) #14
  tail call void @free(ptr noundef nonnull %0) #14
  ret void
}